; Function Attrs: mustprogress nounwind uwtable
define hidden void @_ZN6hermes14dumpESTreeJSONERN4llvh11raw_ostreamEPNS_6ESTree4NodeEbNS_14ESTreeDumpModeERNS_18SourceErrorManagerENS_16LocationDumpModeENS_13ESTreeRawPropE(ptr noundef nonnull align 8 dereferenceable(36) %os, ptr noundef %rootNode, i1 noundef zeroext %pretty, i32 noundef %mode, ptr noundef nonnull align 8 dereferenceable(464) %sm, i32 noundef %locMode, i32 noundef %rawProp) local_unnamed_addr #0 {
entry:
  %json = alloca %"class.hermes::JSONEmitter", align 8
  %ref.tmp = alloca %"class.hermes::(anonymous namespace)::ESTreeJSONDumper", align 8
  %frombool.i = zext i1 %pretty to i8
  %add.ptr.i.i.i.i.i.i = getelementptr inbounds nuw i8, ptr %json, i64 16
  store ptr %add.ptr.i.i.i.i.i.i, ptr %json, align 8
  %Size.i.i.i.i.i.i = getelementptr inbounds nuw i8, ptr %json, i64 8
  store i32 0, ptr %Size.i.i.i.i.i.i, align 8
  %Capacity2.i.i.i.i.i.i = getelementptr inbounds nuw i8, ptr %json, i64 12
  store i32 8, ptr %Capacity2.i.i.i.i.i.i, align 4
  %OS2.i = getelementptr inbounds nuw i8, ptr %json, i64 56
  store ptr %os, ptr %OS2.i, align 8
  %pretty_.i = getelementptr inbounds nuw i8, ptr %json, i64 64
  store i8 %frombool.i, ptr %pretty_.i, align 8
  %indent_.i = getelementptr inbounds nuw i8, ptr %json, i64 68
  store i32 0, ptr %indent_.i, align 4
  call fastcc void @_ZN6hermes12_GLOBAL__N_116ESTreeJSONDumperC2ERNS_11JSONEmitterEPNS_18SourceErrorManagerENS_14ESTreeDumpModeENS_16LocationDumpModeENS_13ESTreeRawPropEPKN4llvh8DenseSetINS_6ESTree8NodeKindENSB_12NodeKindInfoEEE(ptr noundef nonnull align 8 dereferenceable(72) %ref.tmp, ptr noundef nonnull align 8 dereferenceable(72) %json, ptr noundef nonnull %sm, i32 noundef %mode, i32 noundef %locMode, i32 noundef %rawProp, ptr noundef null)
  call fastcc void @_ZN6hermes12_GLOBAL__N_116ESTreeJSONDumper8dumpNodeEPNS_6ESTree4NodeE(ptr noundef nonnull align 8 dereferenceable(72) %ref.tmp, ptr noundef %rootNode)
  %ignoredEmptyFields_.i = getelementptr inbounds nuw i8, ptr %ref.tmp, i64 32
  call void @_ZN4llvh9StringMapINS_9StringSetINS_15MallocAllocatorEEES2_ED2Ev(ptr noundef nonnull align 8 dereferenceable(25) %ignoredEmptyFields_.i) #7
  call void @_ZN6hermes11JSONEmitter8endJSONLEv(ptr noundef nonnull align 8 dereferenceable(72) %json) #7
  %0 = load ptr, ptr %json, align 8
  %cmp.i.i.i.i = icmp eq ptr %0, %add.ptr.i.i.i.i.i.i
  br i1 %cmp.i.i.i.i, label %_ZN6hermes11JSONEmitterD2Ev.exit, label %if.then.i.i.i

if.then.i.i.i:                                    ; preds = %entry
  call void @free(ptr noundef %0) #7
  br label %_ZN6hermes11JSONEmitterD2Ev.exit

_ZN6hermes11JSONEmitterD2Ev.exit:                 ; preds = %entry, %if.then.i.i.i
  ret void
}